; ModuleID = '29/340.c'
source_filename = "29/340.c"
target datalayout = "e-m:e-p270:32:32-p271:32:32-p272:64:64-i64:64-f80:128-n8:16:32:64-S128"
target triple = "x86_64-pc-linux-gnu"

@.str = private unnamed_addr constant [3 x i8] c"%d\00", align 1
@.str.1 = private unnamed_addr constant [7 x i8] c"%.3lf\0A\00", align 1

; Function Attrs: noinline nounwind uwtable
define dso_local i32 @main() #0 {
  %1 = alloca i32, align 4
  %2 = alloca double, align 8
  %3 = alloca double, align 8
  %4 = alloca [100 x double], align 16
  %5 = alloca i32, align 4
  %6 = alloca i32, align 4
  %7 = alloca i32, align 4
  %8 = alloca i32, align 4
  %9 = alloca i32, align 4
  store i32 0, i32* %1, align 4
  %10 = bitcast [100 x double]* %4 to i8*
  call void @llvm.memset.p0i8.i64(i8* align 16 %10, i8 0, i64 800, i1 false)
  store double 2.000000e+00, double* %2, align 8
  store double 1.000000e+00, double* %3, align 8
  %11 = call i32 (i8*, ...) @__isoc99_scanf(i8* getelementptr inbounds ([3 x i8], [3 x i8]* @.str, i64 0, i64 0), i32* %5)
  store i32 0, i32* %9, align 4
  br label %12

12:                                               ; preds = %47, %0
  %13 = load i32, i32* %9, align 4
  %14 = load i32, i32* %5, align 4
  %15 = icmp slt i32 %13, %14
  br i1 %15, label %16, label %50

16:                                               ; preds = %12
  %17 = call i32 (i8*, ...) @__isoc99_scanf(i8* getelementptr inbounds ([3 x i8], [3 x i8]* @.str, i64 0, i64 0), i32* %8)
  store i32 0, i32* %6, align 4
  br label %18

18:                                               ; preds = %38, %16
  %19 = load i32, i32* %6, align 4
  %20 = load i32, i32* %8, align 4
  %21 = icmp slt i32 %19, %20
  br i1 %21, label %22, label %41

22:                                               ; preds = %18
  %23 = load double, double* %2, align 8
  %24 = load double, double* %3, align 8
  %25 = fdiv double %23, %24
  %26 = load i32, i32* %9, align 4
  %27 = sext i32 %26 to i64
  %28 = getelementptr inbounds [100 x double], [100 x double]* %4, i64 0, i64 %27
  %29 = load double, double* %28, align 8
  %30 = fadd double %29, %25
  store double %30, double* %28, align 8
  %31 = load double, double* %3, align 8
  %32 = fptosi double %31 to i32
  store i32 %32, i32* %7, align 4
  %33 = load double, double* %2, align 8
  store double %33, double* %3, align 8
  %34 = load i32, i32* %7, align 4
  %35 = sitofp i32 %34 to double
  %36 = load double, double* %2, align 8
  %37 = fadd double %35, %36
  store double %37, double* %2, align 8
  br label %38

38:                                               ; preds = %22
  %39 = load i32, i32* %6, align 4
  %40 = add nsw i32 %39, 1
  store i32 %40, i32* %6, align 4
  br label %18

41:                                               ; preds = %18
  store double 2.000000e+00, double* %2, align 8
  store double 1.000000e+00, double* %3, align 8
  %42 = load i32, i32* %9, align 4
  %43 = sext i32 %42 to i64
  %44 = getelementptr inbounds [100 x double], [100 x double]* %4, i64 0, i64 %43
  %45 = load double, double* %44, align 8
  %46 = call i32 (i8*, ...) @printf(i8* getelementptr inbounds ([7 x i8], [7 x i8]* @.str.1, i64 0, i64 0), double %45)
  br label %47

47:                                               ; preds = %41
  %48 = load i32, i32* %9, align 4
  %49 = add nsw i32 %48, 1
  store i32 %49, i32* %9, align 4
  br label %12

50:                                               ; preds = %12
  ret i32 0
}

; Function Attrs: argmemonly nounwind willreturn
declare void @llvm.memset.p0i8.i64(i8* nocapture writeonly, i8, i64, i1 immarg) #1

declare dso_local i32 @__isoc99_scanf(i8*, ...) #2

declare dso_local i32 @printf(i8*, ...) #2


!llvm.module.flags = !{!0}
!llvm.ident = !{!1}

!0 = !{i32 1, !"wchar_size", i32 4}
!1 = !{!"clang version 10.0.0-4ubuntu1 "}
